ccopy_reg
_reconstructor
p0
(cDicomPlugin
DicomDataset
p1
c__builtin__
object
p2
Ntp3
Rp4
(dp5
S'series'
p6
(lp7
g0
(cDicomPlugin
DicomSeries
p8
g2
Ntp9
Rp10
(dp11
S'seriesID'
p12
S'1.3.6.1.4.1.9590.100.1.1.2375764972290531328210423958986997132495'
p13
sS'parent'
p14
g4
sS'simgs'
p15
(lp16
sS'filenames'
p17
(lp18
S'SA_00000.dcm'
p19
aS'SA_00001.dcm'
p20
aS'SA_00002.dcm'
p21
aS'SA_00003.dcm'
p22
aS'SA_00004.dcm'
p23
aS'SA_00005.dcm'
p24
aS'SA_00006.dcm'
p25
aS'SA_00007.dcm'
p26
aS'SA_00008.dcm'
p27
aS'SA_00009.dcm'
p28
aS'SA_00010.dcm'
p29
aS'SA_00011.dcm'
p30
aS'SA_00012.dcm'
p31
aS'SA_00013.dcm'
p32
aS'SA_00014.dcm'
p33
aS'SA_00015.dcm'
p34
aS'SA_00016.dcm'
p35
aS'SA_00017.dcm'
p36
aS'SA_00018.dcm'
p37
aS'SA_00019.dcm'
p38
aS'SA_00020.dcm'
p39
aS'SA_00021.dcm'
p40
aS'SA_00022.dcm'
p41
aS'SA_00023.dcm'
p42
aS'SA_00024.dcm'
p43
aS'SA_00025.dcm'
p44
aS'SA_00026.dcm'
p45
aS'SA_00027.dcm'
p46
asS'seriesNum'
p47
I0
sS'desc'
p48
S'SA'
p49
sbasS'rootdir'
p50
S'/home/localek10/workspace/Eidolon/tutorial/DicomData'
p51
sb.